; Function Attrs: nounwind uwtable
define range(i32 -1, 1) i32 @H5EA__iblock_unprotect(ptr noundef %0, i32 noundef %1) local_unnamed_addr #0 {
  %3 = load i8, ptr @H5EA_init_g, align 1, !tbaa !3, !range !7, !noundef !8
  %4 = trunc nuw i8 %3 to i1
  %5 = load i8, ptr @H5_libterm_g, align 1, !range !7
  %6 = trunc nuw i8 %5 to i1
  %7 = xor i1 %6, true
  %8 = select i1 %4, i1 true, i1 %7
  br i1 %8, label %9, label %23, !prof !9

9:                                                ; preds = %2
  %10 = getelementptr inbounds nuw i8, ptr %0, i64 272
  %11 = load ptr, ptr %10, align 8, !tbaa !12
  %12 = getelementptr inbounds nuw i8, ptr %11, i64 384
  %13 = load ptr, ptr %12, align 8, !tbaa !53
  %14 = getelementptr inbounds nuw i8, ptr %0, i64 280
  %15 = load i64, ptr %14, align 8, !tbaa !25
  %16 = tail call i32 @H5AC_unprotect(ptr noundef %13, ptr noundef nonnull @H5AC_EARRAY_IBLOCK, i64 noundef %15, ptr noundef %0, i32 noundef %1) #3
  %17 = icmp slt i32 %16, 0
  br i1 %17, label %18, label %23

18:                                               ; preds = %9
  %19 = load i64, ptr @H5E_EARRAY_g, align 8, !tbaa !10
  %20 = load i64, ptr @H5E_CANTUNPROTECT_g, align 8, !tbaa !10
  %21 = load i64, ptr %14, align 8, !tbaa !25
  %22 = tail call i32 (ptr, ptr, i32, i64, i64, ptr, ...) @H5E_printf_stack(ptr noundef nonnull @.str, ptr noundef nonnull @__func__.H5EA__iblock_unprotect, i32 noundef 340, i64 noundef %19, i64 noundef %20, ptr noundef nonnull @.str.14, i64 noundef %21) #3
  br label %23

23:                                               ; preds = %18, %9, %2
  %.0 = phi i32 [ -1, %18 ], [ 0, %9 ], [ 0, %2 ]
  ret i32 %.0
}